target datalayout = "e-m:e-p270:32:32-p271:32:32-p272:64:64-i64:64-i128:128-f80:128-n8:16:32:64-S128"
target triple = "x86_64-pc-linux-gnu"

%struct.RoqContext = type { ptr, ptr, ptr, ptr, i32, i32, [256 x %struct.roq_cell], [256 x %struct.roq_qcell] }
%struct.roq_cell = type { [4 x i8], i8, i8 }
%struct.roq_qcell = type { [4 x i32] }
%struct.AVFrame = type { [8 x ptr], [8 x i32], ptr, i32, i32, i32, i32, i32, %struct.AVRational, i64, i64, %struct.AVRational, i32, ptr, i32, i32, [8 x ptr], ptr, i32, ptr, i32, i32, i32, i32, i32, i32, i32, i64, ptr, i32, ptr, ptr, i64, i64, i64, i64, ptr, %struct.AVChannelLayout, i64 }
%struct.AVRational = type { i32, i32 }
%struct.AVChannelLayout = type { i32, i32, %union.anon, ptr }
%union.anon = type { i64 }

@.str = private unnamed_addr constant [73 x i8] c"motion vector out of bounds: MV = (%d, %d), boundaries = (0, 0, %d, %d)\0A\00", align 1
@.str.1 = private unnamed_addr constant [38 x i8] c"Invalid decode type. Invalid header?\0A\00", align 1

; Function Attrs: inlinehint nounwind uwtable
define internal void @block_copy(ptr noundef %0, ptr noundef %1, i32 noundef %2, i32 noundef %3, i32 noundef %4) #2 {
  %6 = alloca ptr, align 8
  %7 = alloca ptr, align 8
  %8 = alloca i32, align 4
  %9 = alloca i32, align 4
  %10 = alloca i32, align 4
  %11 = alloca i32, align 4
  store ptr %0, ptr %6, align 8, !tbaa !17
  store ptr %1, ptr %7, align 8, !tbaa !17
  store i32 %2, ptr %8, align 4, !tbaa !9
  store i32 %3, ptr %9, align 4, !tbaa !9
  store i32 %4, ptr %10, align 4, !tbaa !9
  call void @llvm.lifetime.start.p0(i64 4, ptr %11) #5
  %12 = load i32, ptr %10, align 4, !tbaa !9
  store i32 %12, ptr %11, align 4, !tbaa !9
  br label %13

13:                                               ; preds = %17, %5
  %14 = load i32, ptr %11, align 4, !tbaa !9
  %15 = add nsw i32 %14, -1
  store i32 %15, ptr %11, align 4, !tbaa !9
  %16 = icmp ne i32 %14, 0
  br i1 %16, label %17, label %30

17:                                               ; preds = %13
  %18 = load ptr, ptr %6, align 8, !tbaa !17
  %19 = load ptr, ptr %7, align 8, !tbaa !17
  %20 = load i32, ptr %10, align 4, !tbaa !9
  %21 = sext i32 %20 to i64
  call void @llvm.memcpy.p0.p0.i64(ptr align 1 %18, ptr align 1 %19, i64 %21, i1 false)
  %22 = load i32, ptr %8, align 4, !tbaa !9
  %23 = load ptr, ptr %6, align 8, !tbaa !17
  %24 = sext i32 %22 to i64
  %25 = getelementptr inbounds i8, ptr %23, i64 %24
  store ptr %25, ptr %6, align 8, !tbaa !17
  %26 = load i32, ptr %9, align 4, !tbaa !9
  %27 = load ptr, ptr %7, align 8, !tbaa !17
  %28 = sext i32 %26 to i64
  %29 = getelementptr inbounds i8, ptr %27, i64 %28
  store ptr %29, ptr %7, align 8, !tbaa !17
  br label %13, !llvm.loop !29

30:                                               ; preds = %13
  call void @llvm.lifetime.end.p0(i64 4, ptr %11) #5
  ret void
}

; Function Attrs: inlinehint nounwind uwtable
define internal void @apply_motion_generic(ptr noundef %0, i32 noundef %1, i32 noundef %2, i32 noundef %3, i32 noundef %4, i32 noundef %5) #2 {
  %7 = alloca ptr, align 8
  %8 = alloca i32, align 4
  %9 = alloca i32, align 4
  %10 = alloca i32, align 4
  %11 = alloca i32, align 4
  %12 = alloca i32, align 4
  %13 = alloca i32, align 4
  %14 = alloca i32, align 4
  %15 = alloca i32, align 4
  %16 = alloca i32, align 4
  %17 = alloca i32, align 4
  %18 = alloca i32, align 4
  store ptr %0, ptr %7, align 8, !tbaa !4
  store i32 %1, ptr %8, align 4, !tbaa !9
  store i32 %2, ptr %9, align 4, !tbaa !9
  store i32 %3, ptr %10, align 4, !tbaa !9
  store i32 %4, ptr %11, align 4, !tbaa !9
  store i32 %5, ptr %12, align 4, !tbaa !9
  call void @llvm.lifetime.start.p0(i64 4, ptr %13) #5
  call void @llvm.lifetime.start.p0(i64 4, ptr %14) #5
  call void @llvm.lifetime.start.p0(i64 4, ptr %15) #5
  %19 = load i32, ptr %8, align 4, !tbaa !9
  %20 = load i32, ptr %10, align 4, !tbaa !9
  %21 = add nsw i32 %19, %20
  store i32 %21, ptr %13, align 4, !tbaa !9
  %22 = load i32, ptr %9, align 4, !tbaa !9
  %23 = load i32, ptr %11, align 4, !tbaa !9
  %24 = add nsw i32 %22, %23
  store i32 %24, ptr %14, align 4, !tbaa !9
  %25 = load i32, ptr %13, align 4, !tbaa !9
  %26 = icmp slt i32 %25, 0
  br i1 %26, label %46, label %27

27:                                               ; preds = %6
  %28 = load i32, ptr %13, align 4, !tbaa !9
  %29 = load ptr, ptr %7, align 8, !tbaa !4
  %30 = getelementptr inbounds nuw %struct.RoqContext, ptr %29, i32 0, i32 4
  %31 = load i32, ptr %30, align 8, !tbaa !23
  %32 = load i32, ptr %12, align 4, !tbaa !9
  %33 = sub nsw i32 %31, %32
  %34 = icmp sgt i32 %28, %33
  br i1 %34, label %46, label %35

35:                                               ; preds = %27
  %36 = load i32, ptr %14, align 4, !tbaa !9
  %37 = icmp slt i32 %36, 0
  br i1 %37, label %46, label %38

38:                                               ; preds = %35
  %39 = load i32, ptr %14, align 4, !tbaa !9
  %40 = load ptr, ptr %7, align 8, !tbaa !4
  %41 = getelementptr inbounds nuw %struct.RoqContext, ptr %40, i32 0, i32 5
  %42 = load i32, ptr %41, align 4, !tbaa !24
  %43 = load i32, ptr %12, align 4, !tbaa !9
  %44 = sub nsw i32 %42, %43
  %45 = icmp sgt i32 %39, %44
  br i1 %45, label %46, label %58

46:                                               ; preds = %38, %35, %27, %6
  %47 = load ptr, ptr %7, align 8, !tbaa !4
  %48 = getelementptr inbounds nuw %struct.RoqContext, ptr %47, i32 0, i32 1
  %49 = load ptr, ptr %48, align 8, !tbaa !25
  %50 = load i32, ptr %13, align 4, !tbaa !9
  %51 = load i32, ptr %14, align 4, !tbaa !9
  %52 = load ptr, ptr %7, align 8, !tbaa !4
  %53 = getelementptr inbounds nuw %struct.RoqContext, ptr %52, i32 0, i32 4
  %54 = load i32, ptr %53, align 8, !tbaa !23
  %55 = load ptr, ptr %7, align 8, !tbaa !4
  %56 = getelementptr inbounds nuw %struct.RoqContext, ptr %55, i32 0, i32 5
  %57 = load i32, ptr %56, align 4, !tbaa !24
  call void (ptr, i32, ptr, ...) @av_log(ptr noundef %49, i32 noundef 16, ptr noundef @.str, i32 noundef %50, i32 noundef %51, i32 noundef %54, i32 noundef %57)
  store i32 1, ptr %16, align 4
  br label %130

58:                                               ; preds = %38
  %59 = load ptr, ptr %7, align 8, !tbaa !4
  %60 = getelementptr inbounds nuw %struct.RoqContext, ptr %59, i32 0, i32 2
  %61 = load ptr, ptr %60, align 8, !tbaa !26
  %62 = getelementptr inbounds nuw %struct.AVFrame, ptr %61, i32 0, i32 0
  %63 = getelementptr inbounds [8 x ptr], ptr %62, i64 0, i64 0
  %64 = load ptr, ptr %63, align 8, !tbaa !17
  %65 = icmp ne ptr %64, null
  br i1 %65, label %70, label %66

66:                                               ; preds = %58
  %67 = load ptr, ptr %7, align 8, !tbaa !4
  %68 = getelementptr inbounds nuw %struct.RoqContext, ptr %67, i32 0, i32 1
  %69 = load ptr, ptr %68, align 8, !tbaa !25
  call void (ptr, i32, ptr, ...) @av_log(ptr noundef %69, i32 noundef 16, ptr noundef @.str.1)
  store i32 1, ptr %16, align 4
  br label %130

70:                                               ; preds = %58
  store i32 0, ptr %15, align 4, !tbaa !9
  br label %71

71:                                               ; preds = %126, %70
  %72 = load i32, ptr %15, align 4, !tbaa !9
  %73 = icmp slt i32 %72, 3
  br i1 %73, label %74, label %129

74:                                               ; preds = %71
  call void @llvm.lifetime.start.p0(i64 4, ptr %17) #5
  %75 = load ptr, ptr %7, align 8, !tbaa !4
  %76 = getelementptr inbounds nuw %struct.RoqContext, ptr %75, i32 0, i32 3
  %77 = load ptr, ptr %76, align 8, !tbaa !13
  %78 = getelementptr inbounds nuw %struct.AVFrame, ptr %77, i32 0, i32 1
  %79 = load i32, ptr %15, align 4, !tbaa !9
  %80 = sext i32 %79 to i64
  %81 = getelementptr inbounds [8 x i32], ptr %78, i64 0, i64 %80
  %82 = load i32, ptr %81, align 4, !tbaa !9
  store i32 %82, ptr %17, align 4, !tbaa !9
  call void @llvm.lifetime.start.p0(i64 4, ptr %18) #5
  %83 = load ptr, ptr %7, align 8, !tbaa !4
  %84 = getelementptr inbounds nuw %struct.RoqContext, ptr %83, i32 0, i32 2
  %85 = load ptr, ptr %84, align 8, !tbaa !26
  %86 = getelementptr inbounds nuw %struct.AVFrame, ptr %85, i32 0, i32 1
  %87 = load i32, ptr %15, align 4, !tbaa !9
  %88 = sext i32 %87 to i64
  %89 = getelementptr inbounds [8 x i32], ptr %86, i64 0, i64 %88
  %90 = load i32, ptr %89, align 4, !tbaa !9
  store i32 %90, ptr %18, align 4, !tbaa !9
  %91 = load ptr, ptr %7, align 8, !tbaa !4
  %92 = getelementptr inbounds nuw %struct.RoqContext, ptr %91, i32 0, i32 3
  %93 = load ptr, ptr %92, align 8, !tbaa !13
  %94 = getelementptr inbounds nuw %struct.AVFrame, ptr %93, i32 0, i32 0
  %95 = load i32, ptr %15, align 4, !tbaa !9
  %96 = sext i32 %95 to i64
  %97 = getelementptr inbounds [8 x ptr], ptr %94, i64 0, i64 %96
  %98 = load ptr, ptr %97, align 8, !tbaa !17
  %99 = load i32, ptr %9, align 4, !tbaa !9
  %100 = load i32, ptr %17, align 4, !tbaa !9
  %101 = mul nsw i32 %99, %100
  %102 = sext i32 %101 to i64
  %103 = getelementptr inbounds i8, ptr %98, i64 %102
  %104 = load i32, ptr %8, align 4, !tbaa !9
  %105 = sext i32 %104 to i64
  %106 = getelementptr inbounds i8, ptr %103, i64 %105
  %107 = load ptr, ptr %7, align 8, !tbaa !4
  %108 = getelementptr inbounds nuw %struct.RoqContext, ptr %107, i32 0, i32 2
  %109 = load ptr, ptr %108, align 8, !tbaa !26
  %110 = getelementptr inbounds nuw %struct.AVFrame, ptr %109, i32 0, i32 0
  %111 = load i32, ptr %15, align 4, !tbaa !9
  %112 = sext i32 %111 to i64
  %113 = getelementptr inbounds [8 x ptr], ptr %110, i64 0, i64 %112
  %114 = load ptr, ptr %113, align 8, !tbaa !17
  %115 = load i32, ptr %14, align 4, !tbaa !9
  %116 = load i32, ptr %18, align 4, !tbaa !9
  %117 = mul nsw i32 %115, %116
  %118 = sext i32 %117 to i64
  %119 = getelementptr inbounds i8, ptr %114, i64 %118
  %120 = load i32, ptr %13, align 4, !tbaa !9
  %121 = sext i32 %120 to i64
  %122 = getelementptr inbounds i8, ptr %119, i64 %121
  %123 = load i32, ptr %17, align 4, !tbaa !9
  %124 = load i32, ptr %18, align 4, !tbaa !9
  %125 = load i32, ptr %12, align 4, !tbaa !9
  call void @block_copy(ptr noundef %106, ptr noundef %122, i32 noundef %123, i32 noundef %124, i32 noundef %125)
  call void @llvm.lifetime.end.p0(i64 4, ptr %18) #5
  call void @llvm.lifetime.end.p0(i64 4, ptr %17) #5
  br label %126

126:                                              ; preds = %74
  %127 = load i32, ptr %15, align 4, !tbaa !9
  %128 = add nsw i32 %127, 1
  store i32 %128, ptr %15, align 4, !tbaa !9
  br label %71, !llvm.loop !27

129:                                              ; preds = %71
  store i32 0, ptr %16, align 4
  br label %130

130:                                              ; preds = %129, %66, %46
  call void @llvm.lifetime.end.p0(i64 4, ptr %15) #5
  call void @llvm.lifetime.end.p0(i64 4, ptr %14) #5
  call void @llvm.lifetime.end.p0(i64 4, ptr %13) #5
  %131 = load i32, ptr %16, align 4
  switch i32 %131, label %133 [
    i32 0, label %132
    i32 1, label %132
  ]

132:                                              ; preds = %130, %130
  ret void

133:                                              ; preds = %130
  unreachable
}

; Function Attrs: nounwind uwtable
define void @ff_apply_motion_8x8(ptr noundef %0, i32 noundef %1, i32 noundef %2, i32 noundef %3, i32 noundef %4) #0 {
  %6 = alloca ptr, align 8
  %7 = alloca i32, align 4
  %8 = alloca i32, align 4
  %9 = alloca i32, align 4
  %10 = alloca i32, align 4
  store ptr %0, ptr %6, align 8, !tbaa !4
  store i32 %1, ptr %7, align 4, !tbaa !9
  store i32 %2, ptr %8, align 4, !tbaa !9
  store i32 %3, ptr %9, align 4, !tbaa !9
  store i32 %4, ptr %10, align 4, !tbaa !9
  %11 = load ptr, ptr %6, align 8, !tbaa !4
  %12 = load i32, ptr %7, align 4, !tbaa !9
  %13 = load i32, ptr %8, align 4, !tbaa !9
  %14 = load i32, ptr %9, align 4, !tbaa !9
  %15 = load i32, ptr %10, align 4, !tbaa !9
  call void @apply_motion_generic(ptr noundef %11, i32 noundef %12, i32 noundef %13, i32 noundef %14, i32 noundef %15, i32 noundef 8)
  ret void
}